target datalayout = "e-m:e-p270:32:32-p271:32:32-p272:64:64-i64:64-i128:128-f80:128-n8:16:32:64-S128"
target triple = "x86_64-pc-linux-gnu"

@hf_rpc_auth_stamp = internal global i32 0, align 4
@hf_rpc_auth_uid = internal global i32 0, align 4
@hf_rpc_auth_gid = internal global i32 0, align 4
@hf_rpc_auth_machinename = internal global i32 0, align 4

; Function Attrs: null_pointer_is_valid sspstrong uwtable
define i32 @dissect_rpc_string(ptr noundef %0, ptr noundef %1, i32 noundef %2, i32 noundef %3, ptr noundef %4) #0 {
  %6 = alloca ptr, align 8
  %7 = alloca ptr, align 8
  %8 = alloca i32, align 4
  %9 = alloca i32, align 4
  %10 = alloca ptr, align 8
  store ptr %0, ptr %6, align 8
  store ptr %1, ptr %7, align 8
  store i32 %2, ptr %8, align 4
  store i32 %3, ptr %9, align 4
  store ptr %4, ptr %10, align 8
  %11 = load ptr, ptr %6, align 8
  %12 = load i32, ptr %9, align 4
  %13 = load ptr, ptr %7, align 8
  %14 = load i32, ptr %8, align 4
  %15 = load ptr, ptr %10, align 8
  %16 = call i32 @dissect_rpc_opaque_data(ptr noundef %11, i32 noundef %12, ptr noundef %13, ptr noundef null, i32 noundef %14, i1 noundef zeroext false, i32 noundef 0, i1 noundef zeroext true, ptr noundef %15, ptr noundef null)
  store i32 %16, ptr %9, align 4
  %17 = load i32, ptr %9, align 4
  ret i32 %17
}

; Function Attrs: null_pointer_is_valid sspstrong uwtable
define internal i32 @dissect_rpc_authunix_cred(ptr noundef %0, ptr noundef %1, i32 noundef %2) #0 {
  %4 = alloca ptr, align 8
  %5 = alloca ptr, align 8
  %6 = alloca i32, align 4
  %7 = alloca i32, align 4
  %8 = alloca i32, align 4
  %9 = alloca i32, align 4
  store ptr %0, ptr %4, align 8
  store ptr %1, ptr %5, align 8
  store i32 %2, ptr %6, align 4
  call void @llvm.lifetime.start.p0(i64 4, ptr %7) #18
  call void @llvm.lifetime.start.p0(i64 4, ptr %8) #18
  call void @llvm.lifetime.start.p0(i64 4, ptr %9) #18
  %10 = load ptr, ptr %4, align 8
  %11 = load i32, ptr %6, align 4
  %12 = call i32 @tvb_get_ntohl(ptr noundef %10, i32 noundef %11)
  store i32 %12, ptr %7, align 4
  %13 = load ptr, ptr %5, align 8
  %14 = load i32, ptr @hf_rpc_auth_stamp, align 4
  %15 = load ptr, ptr %4, align 8
  %16 = load i32, ptr %6, align 4
  %17 = load i32, ptr %7, align 4
  %18 = call ptr @proto_tree_add_uint(ptr noundef %13, i32 noundef %14, ptr noundef %15, i32 noundef %16, i32 noundef 4, i32 noundef %17)
  %19 = load i32, ptr %6, align 4
  %20 = add i32 %19, 4
  store i32 %20, ptr %6, align 4
  %21 = load ptr, ptr %4, align 8
  %22 = load ptr, ptr %5, align 8
  %23 = load i32, ptr @hf_rpc_auth_machinename, align 4
  %24 = load i32, ptr %6, align 4
  %25 = call i32 @dissect_rpc_string(ptr noundef %21, ptr noundef %22, i32 noundef %23, i32 noundef %24, ptr noundef null)
  store i32 %25, ptr %6, align 4
  %26 = load ptr, ptr %4, align 8
  %27 = load i32, ptr %6, align 4
  %28 = call i32 @tvb_get_ntohl(ptr noundef %26, i32 noundef %27)
  store i32 %28, ptr %8, align 4
  %29 = load ptr, ptr %5, align 8
  %30 = load i32, ptr @hf_rpc_auth_uid, align 4
  %31 = load ptr, ptr %4, align 8
  %32 = load i32, ptr %6, align 4
  %33 = load i32, ptr %8, align 4
  %34 = call ptr @proto_tree_add_uint(ptr noundef %29, i32 noundef %30, ptr noundef %31, i32 noundef %32, i32 noundef 4, i32 noundef %33)
  %35 = load i32, ptr %6, align 4
  %36 = add i32 %35, 4
  store i32 %36, ptr %6, align 4
  %37 = load ptr, ptr %4, align 8
  %38 = load i32, ptr %6, align 4
  %39 = call i32 @tvb_get_ntohl(ptr noundef %37, i32 noundef %38)
  store i32 %39, ptr %9, align 4
  %40 = load ptr, ptr %5, align 8
  %41 = load i32, ptr @hf_rpc_auth_gid, align 4
  %42 = load ptr, ptr %4, align 8
  %43 = load i32, ptr %6, align 4
  %44 = load i32, ptr %9, align 4
  %45 = call ptr @proto_tree_add_uint(ptr noundef %40, i32 noundef %41, ptr noundef %42, i32 noundef %43, i32 noundef 4, i32 noundef %44)
  %46 = load i32, ptr %6, align 4
  %47 = add i32 %46, 4
  store i32 %47, ptr %6, align 4
  %48 = load ptr, ptr %4, align 8
  %49 = load ptr, ptr %5, align 8
  %50 = load i32, ptr %6, align 4
  %51 = call i32 @dissect_rpc_authunix_groups(ptr noundef %48, ptr noundef %49, i32 noundef %50)
  store i32 %51, ptr %6, align 4
  %52 = load i32, ptr %6, align 4
  call void @llvm.lifetime.end.p0(i64 4, ptr %9) #18
  call void @llvm.lifetime.end.p0(i64 4, ptr %8) #18
  call void @llvm.lifetime.end.p0(i64 4, ptr %7) #18
  ret i32 %52
}