; Function Attrs: null_pointer_is_valid sspstrong uwtable
define internal fastcc void @dissect_rpc_authunix_cred(ptr noundef %0, ptr noundef %1, i32 noundef %2) unnamed_addr #0 {
  %4 = tail call i32 @tvb_get_ntohl(ptr noundef %0, i32 noundef %2)
  %5 = load i32, ptr @hf_rpc_auth_stamp, align 4
  %6 = tail call ptr @proto_tree_add_uint(ptr noundef %1, i32 noundef %5, ptr noundef %0, i32 noundef %2, i32 noundef 4, i32 noundef %4)
  %7 = add i32 %2, 4
  %8 = load i32, ptr @hf_rpc_auth_machinename, align 4
  %9 = tail call i32 @dissect_rpc_opaque_data(ptr noundef %0, i32 noundef %7, ptr noundef %1, ptr noundef null, i32 noundef %8, i1 noundef zeroext false, i32 noundef 0, i1 noundef zeroext true, ptr noundef null, ptr noundef null)
  %10 = tail call i32 @tvb_get_ntohl(ptr noundef %0, i32 noundef %9)
  %11 = load i32, ptr @hf_rpc_auth_uid, align 4
  %12 = tail call ptr @proto_tree_add_uint(ptr noundef %1, i32 noundef %11, ptr noundef %0, i32 noundef %9, i32 noundef 4, i32 noundef %10)
  %13 = add i32 %9, 4
  %14 = tail call i32 @tvb_get_ntohl(ptr noundef %0, i32 noundef %13)
  %15 = load i32, ptr @hf_rpc_auth_gid, align 4
  %16 = tail call ptr @proto_tree_add_uint(ptr noundef %1, i32 noundef %15, ptr noundef %0, i32 noundef %13, i32 noundef 4, i32 noundef %14)
  %17 = add i32 %9, 8
  %18 = tail call fastcc i32 @dissect_rpc_authunix_groups(ptr noundef %0, ptr noundef %1, i32 noundef %17)
  ret void
}